; Function Attrs: nounwind uwtable
define internal noundef i32 @OnUpdateMaxWastedPercentage(ptr nocapture readnone %0, ptr nocapture noundef readonly %1, ptr noundef %2, ptr nocapture noundef writeonly %3, ptr nocapture readnone %4, i32 %5) #0 {
  %7 = getelementptr inbounds i8, ptr %1, i64 24
  %8 = tail call i32 @atoi(ptr nocapture noundef nonnull %7) #15
  %9 = add i32 %8, -51
  %or.cond = icmp ult i32 %9, -50
  br i1 %or.cond, label %10, label %11

10:                                               ; preds = %6
  tail call void (i32, ptr, ...) @zend_accel_error(i32 noundef 2, ptr noundef nonnull @.str.174) #14
  br label %16

11:                                               ; preds = %6
  %12 = ptrtoint ptr %2 to i64
  %13 = getelementptr inbounds i8, ptr %3, i64 %12
  %14 = sitofp i32 %8 to double
  %15 = fdiv double %14, 1.000000e+02
  store double %15, ptr %13, align 8
  br label %16

16:                                               ; preds = %11, %10
  %.0 = phi i32 [ -1, %10 ], [ 0, %11 ]
  ret i32 %.0
}